target datalayout = "e-m:e-p270:32:32-p271:32:32-p272:64:64-i64:64-i128:128-f80:128-n8:16:32:64-S128"
target triple = "x86_64-pc-linux-gnu"

%struct.ggml_backend_device = type { %struct.ggml_backend_device_i, ptr, ptr }
%struct.ggml_backend_device_i = type { ptr, ptr, ptr, ptr, ptr, ptr, ptr, ptr, ptr, ptr, ptr, ptr, ptr, ptr, ptr }

; Function Attrs: mustprogress uwtable
define ptr @ggml_backend_event_new(ptr noundef %0) #0 {
  %2 = alloca ptr, align 8
  %3 = alloca ptr, align 8
  store ptr %0, ptr %3, align 8, !tbaa !65
  %4 = load ptr, ptr %3, align 8, !tbaa !65
  %5 = icmp eq ptr %4, null
  br i1 %5, label %12, label %6

6:                                                ; preds = %1
  %7 = load ptr, ptr %3, align 8, !tbaa !65
  %8 = getelementptr inbounds nuw %struct.ggml_backend_device, ptr %7, i32 0, i32 0
  %9 = getelementptr inbounds nuw %struct.ggml_backend_device_i, ptr %8, i32 0, i32 12
  %10 = load ptr, ptr %9, align 8, !tbaa !92
  %11 = icmp eq ptr %10, null
  br i1 %11, label %12, label %13

12:                                               ; preds = %6, %1
  store ptr null, ptr %2, align 8
  br label %20

13:                                               ; preds = %6
  %14 = load ptr, ptr %3, align 8, !tbaa !65
  %15 = getelementptr inbounds nuw %struct.ggml_backend_device, ptr %14, i32 0, i32 0
  %16 = getelementptr inbounds nuw %struct.ggml_backend_device_i, ptr %15, i32 0, i32 12
  %17 = load ptr, ptr %16, align 8, !tbaa !92
  %18 = load ptr, ptr %3, align 8, !tbaa !65
  %19 = call noundef ptr %17(ptr noundef %18)
  store ptr %19, ptr %2, align 8
  br label %20

20:                                               ; preds = %13, %12
  %21 = load ptr, ptr %2, align 8
  ret ptr %21
}