; Function Attrs: mustprogress uwtable
define noundef ptr @ggml_backend_event_new(ptr noundef %0) local_unnamed_addr #0 {
  %2 = icmp eq ptr %0, null
  br i1 %2, label %9, label %3

3:                                                ; preds = %1
  %4 = getelementptr inbounds nuw i8, ptr %0, i64 96
  %5 = load ptr, ptr %4, align 8, !tbaa !78
  %6 = icmp eq ptr %5, null
  br i1 %6, label %9, label %7

7:                                                ; preds = %3
  %8 = tail call noundef ptr %5(ptr noundef nonnull %0)
  br label %9

9:                                                ; preds = %1, %3, %7
  %.0 = phi ptr [ %8, %7 ], [ null, %3 ], [ null, %1 ]
  ret ptr %.0
}